; Function Attrs: mustprogress nofree nounwind willreturn memory(read, inaccessiblemem: none) uwtable
define noundef zeroext i1 @_ZNK9grpc_core13StringMatchereqERKS0_(ptr noundef nonnull readonly align 8 captures(none) dereferenceable(49) %0, ptr noundef nonnull readonly align 8 captures(none) dereferenceable(49) %1) local_unnamed_addr #9 align 2 personality ptr @__gxx_personality_v0 {
  %3 = load i32, ptr %0, align 8, !tbaa !37
  %4 = load i32, ptr %1, align 8, !tbaa !37
  %.not = icmp eq i32 %3, %4
  br i1 %.not, label %5, label %_ZSteqIcEN9__gnu_cxx11__enable_ifIXsr9__is_charIT_EE7__valueEbE6__typeERKNSt7__cxx1112basic_stringIS2_St11char_traitsIS2_ESaIS2_EEESC_.exit

5:                                                ; preds = %2
  %6 = getelementptr inbounds nuw i8, ptr %0, i64 48
  %7 = load i8, ptr %6, align 8, !tbaa !47, !range !48, !noundef !49
  %8 = getelementptr inbounds nuw i8, ptr %1, i64 48
  %9 = load i8, ptr %8, align 8, !tbaa !47, !range !48, !noundef !49
  %.not7 = icmp eq i8 %7, %9
  br i1 %.not7, label %10, label %_ZSteqIcEN9__gnu_cxx11__enable_ifIXsr9__is_charIT_EE7__valueEbE6__typeERKNSt7__cxx1112basic_stringIS2_St11char_traitsIS2_ESaIS2_EEESC_.exit

10:                                               ; preds = %5
  %11 = icmp eq i32 %3, 3
  br i1 %11, label %12, label %28

12:                                               ; preds = %10
  %13 = getelementptr inbounds nuw i8, ptr %0, i64 40
  %14 = load ptr, ptr %13, align 8, !tbaa !18
  %15 = getelementptr inbounds nuw i8, ptr %1, i64 40
  %16 = load ptr, ptr %15, align 8, !tbaa !18
  %17 = getelementptr inbounds nuw i8, ptr %14, i64 8
  %18 = load i64, ptr %17, align 8, !tbaa !14
  %19 = getelementptr inbounds nuw i8, ptr %16, i64 8
  %20 = load i64, ptr %19, align 8, !tbaa !14
  %21 = icmp eq i64 %18, %20
  br i1 %21, label %22, label %_ZSteqIcEN9__gnu_cxx11__enable_ifIXsr9__is_charIT_EE7__valueEbE6__typeERKNSt7__cxx1112basic_stringIS2_St11char_traitsIS2_ESaIS2_EEESC_.exit

22:                                               ; preds = %12
  %23 = icmp eq i64 %18, 0
  br i1 %23, label %_ZSteqIcEN9__gnu_cxx11__enable_ifIXsr9__is_charIT_EE7__valueEbE6__typeERKNSt7__cxx1112basic_stringIS2_St11char_traitsIS2_ESaIS2_EEESC_.exit, label %24

24:                                               ; preds = %22
  %25 = load ptr, ptr %16, align 8, !tbaa !11
  %26 = load ptr, ptr %14, align 8, !tbaa !11
  %bcmp.i = tail call i32 @bcmp(ptr %26, ptr %25, i64 %18)
  %27 = icmp eq i32 %bcmp.i, 0
  br label %_ZSteqIcEN9__gnu_cxx11__enable_ifIXsr9__is_charIT_EE7__valueEbE6__typeERKNSt7__cxx1112basic_stringIS2_St11char_traitsIS2_ESaIS2_EEESC_.exit

28:                                               ; preds = %10
  %29 = getelementptr inbounds nuw i8, ptr %0, i64 8
  %30 = getelementptr inbounds nuw i8, ptr %1, i64 8
  %31 = getelementptr inbounds nuw i8, ptr %0, i64 16
  %32 = load i64, ptr %31, align 8, !tbaa !14
  %33 = getelementptr inbounds nuw i8, ptr %1, i64 16
  %34 = load i64, ptr %33, align 8, !tbaa !14
  %35 = icmp eq i64 %32, %34
  br i1 %35, label %36, label %_ZSteqIcEN9__gnu_cxx11__enable_ifIXsr9__is_charIT_EE7__valueEbE6__typeERKNSt7__cxx1112basic_stringIS2_St11char_traitsIS2_ESaIS2_EEESC_.exit

36:                                               ; preds = %28
  %37 = icmp eq i64 %32, 0
  br i1 %37, label %_ZSteqIcEN9__gnu_cxx11__enable_ifIXsr9__is_charIT_EE7__valueEbE6__typeERKNSt7__cxx1112basic_stringIS2_St11char_traitsIS2_ESaIS2_EEESC_.exit, label %38

38:                                               ; preds = %36
  %39 = load ptr, ptr %30, align 8, !tbaa !11
  %40 = load ptr, ptr %29, align 8, !tbaa !11
  %bcmp.i8 = tail call i32 @bcmp(ptr %40, ptr %39, i64 %32)
  %41 = icmp eq i32 %bcmp.i8, 0
  br label %_ZSteqIcEN9__gnu_cxx11__enable_ifIXsr9__is_charIT_EE7__valueEbE6__typeERKNSt7__cxx1112basic_stringIS2_St11char_traitsIS2_ESaIS2_EEESC_.exit

_ZSteqIcEN9__gnu_cxx11__enable_ifIXsr9__is_charIT_EE7__valueEbE6__typeERKNSt7__cxx1112basic_stringIS2_St11char_traitsIS2_ESaIS2_EEESC_.exit: ; preds = %38, %36, %28, %24, %22, %12, %2, %5
  %.0 = phi i1 [ false, %5 ], [ false, %2 ], [ false, %12 ], [ %27, %24 ], [ true, %22 ], [ false, %28 ], [ %41, %38 ], [ true, %36 ]
  ret i1 %.0
}